target datalayout = "e-m:e-p270:32:32-p271:32:32-p272:64:64-i64:64-i128:128-f80:128-n8:16:32:64-S128"
target triple = "x86_64-pc-linux-gnu"

; Function Attrs: mustprogress nounwind uwtable
define dso_local noundef i32 @_ZN4llvm19ConvertUTF16toUTF32EPPKtS1_PPjS3_NS_15ConversionFlagsE(ptr noundef %0, ptr noundef %1, ptr noundef %2, ptr noundef %3, i32 noundef %4) #0 {
  %6 = alloca ptr, align 8
  %7 = alloca ptr, align 8
  %8 = alloca ptr, align 8
  %9 = alloca ptr, align 8
  %10 = alloca i32, align 4
  %11 = alloca i32, align 4
  %12 = alloca ptr, align 8
  %13 = alloca ptr, align 8
  %14 = alloca i32, align 4
  %15 = alloca i32, align 4
  %16 = alloca ptr, align 8
  store ptr %0, ptr %6, align 8
  store ptr %1, ptr %7, align 8
  store ptr %2, ptr %8, align 8
  store ptr %3, ptr %9, align 8
  store i32 %4, ptr %10, align 4
  store i32 0, ptr %11, align 4
  %17 = load ptr, ptr %6, align 8
  %18 = load ptr, ptr %17, align 8
  store ptr %18, ptr %12, align 8
  %19 = load ptr, ptr %8, align 8
  %20 = load ptr, ptr %19, align 8
  store ptr %20, ptr %13, align 8
  br label %21

21:                                               ; preds = %91, %5
  %22 = load ptr, ptr %12, align 8
  %23 = load ptr, ptr %7, align 8
  %24 = icmp ult ptr %22, %23
  br i1 %24, label %25, label %95

25:                                               ; preds = %21
  %26 = load ptr, ptr %12, align 8
  store ptr %26, ptr %16, align 8
  %27 = load ptr, ptr %12, align 8
  %28 = getelementptr inbounds i16, ptr %27, i32 1
  store ptr %28, ptr %12, align 8
  %29 = load i16, ptr %27, align 2
  %30 = zext i16 %29 to i32
  store i32 %30, ptr %14, align 4
  %31 = load i32, ptr %14, align 4
  %32 = icmp uge i32 %31, 55296
  br i1 %32, label %33, label %71

33:                                               ; preds = %25
  %34 = load i32, ptr %14, align 4
  %35 = icmp ule i32 %34, 56319
  br i1 %35, label %36, label %71

36:                                               ; preds = %33
  %37 = load ptr, ptr %12, align 8
  %38 = load ptr, ptr %7, align 8
  %39 = icmp ult ptr %37, %38
  br i1 %39, label %40, label %67

40:                                               ; preds = %36
  %41 = load ptr, ptr %12, align 8
  %42 = load i16, ptr %41, align 2
  %43 = zext i16 %42 to i32
  store i32 %43, ptr %15, align 4
  %44 = load i32, ptr %15, align 4
  %45 = icmp uge i32 %44, 56320
  br i1 %45, label %46, label %59

46:                                               ; preds = %40
  %47 = load i32, ptr %15, align 4
  %48 = icmp ule i32 %47, 57343
  br i1 %48, label %49, label %59

49:                                               ; preds = %46
  %50 = load i32, ptr %14, align 4
  %51 = sub i32 %50, 55296
  %52 = shl i32 %51, 10
  %53 = load i32, ptr %15, align 4
  %54 = sub i32 %53, 56320
  %55 = add i32 %52, %54
  %56 = add i32 %55, 65536
  store i32 %56, ptr %14, align 4
  %57 = load ptr, ptr %12, align 8
  %58 = getelementptr inbounds i16, ptr %57, i32 1
  store ptr %58, ptr %12, align 8
  br label %66

59:                                               ; preds = %46, %40
  %60 = load i32, ptr %10, align 4
  %61 = icmp eq i32 %60, 0
  br i1 %61, label %62, label %65

62:                                               ; preds = %59
  %63 = load ptr, ptr %12, align 8
  %64 = getelementptr inbounds i16, ptr %63, i32 -1
  store ptr %64, ptr %12, align 8
  store i32 3, ptr %11, align 4
  br label %95

65:                                               ; preds = %59
  br label %66

66:                                               ; preds = %65, %49
  br label %70

67:                                               ; preds = %36
  %68 = load ptr, ptr %12, align 8
  %69 = getelementptr inbounds i16, ptr %68, i32 -1
  store ptr %69, ptr %12, align 8
  store i32 1, ptr %11, align 4
  br label %95

70:                                               ; preds = %66
  br label %85

71:                                               ; preds = %33, %25
  %72 = load i32, ptr %10, align 4
  %73 = icmp eq i32 %72, 0
  br i1 %73, label %74, label %84

74:                                               ; preds = %71
  %75 = load i32, ptr %14, align 4
  %76 = icmp uge i32 %75, 56320
  br i1 %76, label %77, label %83

77:                                               ; preds = %74
  %78 = load i32, ptr %14, align 4
  %79 = icmp ule i32 %78, 57343
  br i1 %79, label %80, label %83

80:                                               ; preds = %77
  %81 = load ptr, ptr %12, align 8
  %82 = getelementptr inbounds i16, ptr %81, i32 -1
  store ptr %82, ptr %12, align 8
  store i32 3, ptr %11, align 4
  br label %95

83:                                               ; preds = %77, %74
  br label %84

84:                                               ; preds = %83, %71
  br label %85

85:                                               ; preds = %84, %70
  %86 = load ptr, ptr %13, align 8
  %87 = load ptr, ptr %9, align 8
  %88 = icmp uge ptr %86, %87
  br i1 %88, label %89, label %91

89:                                               ; preds = %85
  %90 = load ptr, ptr %16, align 8
  store ptr %90, ptr %12, align 8
  store i32 2, ptr %11, align 4
  br label %95

91:                                               ; preds = %85
  %92 = load i32, ptr %14, align 4
  %93 = load ptr, ptr %13, align 8
  %94 = getelementptr inbounds i32, ptr %93, i32 1
  store ptr %94, ptr %13, align 8
  store i32 %92, ptr %93, align 4
  br label %21, !llvm.loop !6

95:                                               ; preds = %89, %80, %67, %62, %21
  %96 = load ptr, ptr %12, align 8
  %97 = load ptr, ptr %6, align 8
  store ptr %96, ptr %97, align 8
  %98 = load ptr, ptr %13, align 8
  %99 = load ptr, ptr %8, align 8
  store ptr %98, ptr %99, align 8
  %100 = load i32, ptr %11, align 4
  ret i32 %100
}