; Function Attrs: mustprogress nofree norecurse nosync nounwind memory(readwrite, inaccessiblemem: none) uwtable
define dso_local noundef range(i32 0, 4) i32 @_ZN4llvm19ConvertUTF16toUTF32EPPKtS1_PPjS3_NS_15ConversionFlagsE(ptr nocapture noundef %0, ptr noundef readnone %1, ptr nocapture noundef %2, ptr noundef readnone %3, i32 noundef %4) local_unnamed_addr #0 {
  %6 = load ptr, ptr %0, align 8
  %7 = load ptr, ptr %2, align 8
  %8 = icmp ult ptr %6, %1
  br i1 %8, label %.lr.ph, label %._crit_edge

.lr.ph:                                           ; preds = %5
  %9 = icmp eq i32 %4, 0
  br i1 %9, label %.lr.ph.split.split.us, label %.lr.ph.split.us.split

.lr.ph.split.us.split:                            ; preds = %.lr.ph, %26
  %.03747.us = phi ptr [ %.2.us, %26 ], [ %6, %.lr.ph ]
  %.03946.us = phi ptr [ %27, %26 ], [ %7, %.lr.ph ]
  %10 = getelementptr inbounds i8, ptr %.03747.us, i64 2
  %11 = load i16, ptr %.03747.us, align 2
  %12 = zext i16 %11 to i32
  %13 = and i16 %11, -1024
  %or.cond.us = icmp eq i16 %13, -10240
  br i1 %or.cond.us, label %14, label %25

14:                                               ; preds = %.lr.ph.split.us.split
  %15 = icmp ult ptr %10, %1
  br i1 %15, label %16, label %._crit_edge

16:                                               ; preds = %14
  %17 = load i16, ptr %10, align 2
  %18 = and i16 %17, -1024
  %or.cond3.us = icmp eq i16 %18, -9216
  br i1 %or.cond3.us, label %19, label %25

19:                                               ; preds = %16
  %20 = zext i16 %17 to i32
  %21 = shl nuw nsw i32 %12, 10
  %22 = add nsw i32 %21, -56613888
  %23 = add nuw nsw i32 %22, %20
  %24 = getelementptr inbounds i8, ptr %.03747.us, i64 4
  br label %25

25:                                               ; preds = %16, %.lr.ph.split.us.split, %19
  %.038.us = phi i32 [ %23, %19 ], [ %12, %.lr.ph.split.us.split ], [ %12, %16 ]
  %.2.us = phi ptr [ %24, %19 ], [ %10, %.lr.ph.split.us.split ], [ %10, %16 ]
  %.not.us = icmp ult ptr %.03946.us, %3
  br i1 %.not.us, label %26, label %._crit_edge

26:                                               ; preds = %25
  %27 = getelementptr inbounds i8, ptr %.03946.us, i64 4
  store i32 %.038.us, ptr %.03946.us, align 4
  %28 = icmp ult ptr %.2.us, %1
  br i1 %28, label %.lr.ph.split.us.split, label %._crit_edge, !llvm.loop !6

.lr.ph.split.split.us:                            ; preds = %.lr.ph, %45
  %.03747.us77 = phi ptr [ %.2.us82, %45 ], [ %6, %.lr.ph ]
  %.03946.us78 = phi ptr [ %46, %45 ], [ %7, %.lr.ph ]
  %29 = getelementptr inbounds i8, ptr %.03747.us77, i64 2
  %30 = load i16, ptr %.03747.us77, align 2
  %31 = zext i16 %30 to i32
  %32 = and i16 %30, -1024
  switch i16 %32, label %44 [
    i16 -10240, label %33
    i16 -9216, label %._crit_edge
  ]

33:                                               ; preds = %.lr.ph.split.split.us
  %34 = icmp ult ptr %29, %1
  br i1 %34, label %35, label %._crit_edge

35:                                               ; preds = %33
  %36 = load i16, ptr %29, align 2
  %37 = and i16 %36, -1024
  %or.cond3.us80 = icmp eq i16 %37, -9216
  br i1 %or.cond3.us80, label %38, label %._crit_edge

38:                                               ; preds = %35
  %39 = zext i16 %36 to i32
  %40 = shl nuw nsw i32 %31, 10
  %41 = add nsw i32 %40, -56613888
  %42 = add nsw i32 %41, %39
  %43 = getelementptr inbounds i8, ptr %.03747.us77, i64 4
  br label %44

44:                                               ; preds = %.lr.ph.split.split.us, %38
  %.038.us81 = phi i32 [ %42, %38 ], [ %31, %.lr.ph.split.split.us ]
  %.2.us82 = phi ptr [ %43, %38 ], [ %29, %.lr.ph.split.split.us ]
  %.not.us83 = icmp ult ptr %.03946.us78, %3
  br i1 %.not.us83, label %45, label %._crit_edge

45:                                               ; preds = %44
  %46 = getelementptr inbounds i8, ptr %.03946.us78, i64 4
  store i32 %.038.us81, ptr %.03946.us78, align 4
  %47 = icmp ult ptr %.2.us82, %1
  br i1 %47, label %.lr.ph.split.split.us, label %._crit_edge, !llvm.loop !6

._crit_edge:                                      ; preds = %26, %14, %25, %45, %35, %33, %.lr.ph.split.split.us, %44, %5
  %.039.lcssa = phi ptr [ %7, %5 ], [ %.03946.us78, %44 ], [ %.03946.us78, %.lr.ph.split.split.us ], [ %.03946.us78, %33 ], [ %.03946.us78, %35 ], [ %46, %45 ], [ %.03946.us, %25 ], [ %.03946.us, %14 ], [ %27, %26 ]
  %.037.lcssa = phi ptr [ %6, %5 ], [ %.03747.us77, %44 ], [ %.03747.us77, %.lr.ph.split.split.us ], [ %.03747.us77, %33 ], [ %.03747.us77, %35 ], [ %.2.us82, %45 ], [ %.03747.us, %25 ], [ %.03747.us, %14 ], [ %.2.us, %26 ]
  %.0 = phi i32 [ 0, %5 ], [ 2, %44 ], [ 3, %.lr.ph.split.split.us ], [ 1, %33 ], [ 3, %35 ], [ 0, %45 ], [ 2, %25 ], [ 1, %14 ], [ 0, %26 ]
  store ptr %.037.lcssa, ptr %0, align 8
  store ptr %.039.lcssa, ptr %2, align 8
  ret i32 %.0
}